target datalayout = "e-m:e-p270:32:32-p271:32:32-p272:64:64-i64:64-i128:128-f80:128-n8:16:32:64-S128"
target triple = "x86_64-pc-linux-gnu"

%"struct.std::atomic.2" = type { %"struct.std::__atomic_base.3" }
%"struct.std::__atomic_base.3" = type { i32 }

@_ZN3tbb6detail2r114__TBB_InitOnce5countE = global %"struct.std::atomic.2" zeroinitializer, align 4

; Function Attrs: mustprogress nounwind sspstrong uwtable
define linkonce_odr noundef i32 @_ZNSt13__atomic_baseIiEmmEv(ptr noundef nonnull align 4 dereferenceable(4) %0) #2 comdat align 2 {
  %2 = alloca ptr, align 8
  %3 = alloca i32, align 4
  %4 = alloca i32, align 4
  store ptr %0, ptr %2, align 8, !tbaa !12
  %5 = load ptr, ptr %2, align 8
  %6 = getelementptr inbounds nuw %"struct.std::__atomic_base.3", ptr %5, i32 0, i32 0
  store i32 1, ptr %3, align 4, !tbaa !14
  %7 = load i32, ptr %3, align 4
  %8 = atomicrmw sub ptr %6, i32 %7 seq_cst, align 4
  %9 = sub i32 %8, %7
  store i32 %9, ptr %4, align 4
  %10 = load i32, ptr %4, align 4, !tbaa !14
  ret i32 %10
}

; Function Attrs: mustprogress sspstrong uwtable
define void @_ZN3tbb6detail2r114__TBB_InitOnce10remove_refEv() #1 align 2 {
  %1 = alloca i32, align 4
  call void @llvm.lifetime.start.p0(i64 4, ptr %1) #3
  %2 = call noundef i32 @_ZNSt13__atomic_baseIiEmmEv(ptr noundef nonnull align 4 dereferenceable(4) @_ZN3tbb6detail2r114__TBB_InitOnce5countE) #3
  store i32 %2, ptr %1, align 4, !tbaa !14
  %3 = load i32, ptr %1, align 4, !tbaa !14
  %4 = icmp eq i32 %3, 0
  br i1 %4, label %5, label %6

5:                                                ; preds = %0
  call void @_ZN3tbb6detail2r18governor17release_resourcesEv()
  call void @__itt_fini_ittlib()
  call void @__itt_release_resources()
  br label %6

6:                                                ; preds = %5, %0
  call void @llvm.lifetime.end.p0(i64 4, ptr %1) #3
  ret void
}