; Function Attrs: mustprogress sspstrong uwtable
define void @_ZN3tbb6detail2r114__TBB_InitOnce10remove_refEv() local_unnamed_addr #2 align 2 {
  %1 = atomicrmw sub ptr @_ZN3tbb6detail2r114__TBB_InitOnce5countE, i32 1 seq_cst, align 4
  %2 = icmp eq i32 %1, 1
  br i1 %2, label %3, label %4

3:                                                ; preds = %0
  tail call void @_ZN3tbb6detail2r18governor17release_resourcesEv()
  tail call void @__itt_fini_ittlib()
  tail call void @__itt_release_resources()
  br label %4

4:                                                ; preds = %3, %0
  ret void
}